target datalayout = "e-m:e-p270:32:32-p271:32:32-p272:64:64-i64:64-i128:128-f80:128-n8:16:32:64-S128"
target triple = "x86_64-unknown-linux-gnu"

%"struct.OpenImageIO_v2_6_0::TypeDesc" = type { i8, i8, i8, i8, i32 }
%"class.OpenImageIO_v2_6_0::DDSInput" = type <{ %"class.OpenImageIO_v2_6_0::ImageInput", %"class.std::__cxx11::basic_string", %"class.std::vector.16", i32, i32, i32, i32, i32, [4 x i32], [4 x i32], i32, %"struct.OpenImageIO_v2_6_0::DDS_pvt::dds_header", %"struct.OpenImageIO_v2_6_0::DDS_pvt::dds_header_dx10", [4 x i8] }>
%"class.OpenImageIO_v2_6_0::ImageInput" = type { ptr, %"class.OpenImageIO_v2_6_0::ImageSpec", %"class.std::unique_ptr" }
%"class.OpenImageIO_v2_6_0::ImageSpec" = type { i32, i32, i32, i32, i32, i32, i32, i32, i32, i32, i32, i32, i32, i32, i32, i32, %"struct.OpenImageIO_v2_6_0::TypeDesc", %"class.std::vector", %"class.std::vector.0", i32, i32, i8, %"class.OpenImageIO_v2_6_0::ParamValueList" }
%"class.std::vector" = type { %"struct.std::_Vector_base" }
%"struct.std::_Vector_base" = type { %"struct.std::_Vector_base<OpenImageIO_v2_6_0::TypeDesc, std::allocator<OpenImageIO_v2_6_0::TypeDesc>>::_Vector_impl" }
%"struct.std::_Vector_base<OpenImageIO_v2_6_0::TypeDesc, std::allocator<OpenImageIO_v2_6_0::TypeDesc>>::_Vector_impl" = type { %"struct.std::_Vector_base<OpenImageIO_v2_6_0::TypeDesc, std::allocator<OpenImageIO_v2_6_0::TypeDesc>>::_Vector_impl_data" }
%"struct.std::_Vector_base<OpenImageIO_v2_6_0::TypeDesc, std::allocator<OpenImageIO_v2_6_0::TypeDesc>>::_Vector_impl_data" = type { ptr, ptr, ptr }
%"class.std::vector.0" = type { %"struct.std::_Vector_base.1" }
%"struct.std::_Vector_base.1" = type { %"struct.std::_Vector_base<std::__cxx11::basic_string<char>, std::allocator<std::__cxx11::basic_string<char>>>::_Vector_impl" }
%"struct.std::_Vector_base<std::__cxx11::basic_string<char>, std::allocator<std::__cxx11::basic_string<char>>>::_Vector_impl" = type { %"struct.std::_Vector_base<std::__cxx11::basic_string<char>, std::allocator<std::__cxx11::basic_string<char>>>::_Vector_impl_data" }
%"struct.std::_Vector_base<std::__cxx11::basic_string<char>, std::allocator<std::__cxx11::basic_string<char>>>::_Vector_impl_data" = type { ptr, ptr, ptr }
%"class.OpenImageIO_v2_6_0::ParamValueList" = type { %"class.std::vector.5" }
%"class.std::vector.5" = type { %"struct.std::_Vector_base.6" }
%"struct.std::_Vector_base.6" = type { %"struct.std::_Vector_base<OpenImageIO_v2_6_0::ParamValue, std::allocator<OpenImageIO_v2_6_0::ParamValue>>::_Vector_impl" }
%"struct.std::_Vector_base<OpenImageIO_v2_6_0::ParamValue, std::allocator<OpenImageIO_v2_6_0::ParamValue>>::_Vector_impl" = type { %"struct.std::_Vector_base<OpenImageIO_v2_6_0::ParamValue, std::allocator<OpenImageIO_v2_6_0::ParamValue>>::_Vector_impl_data" }
%"struct.std::_Vector_base<OpenImageIO_v2_6_0::ParamValue, std::allocator<OpenImageIO_v2_6_0::ParamValue>>::_Vector_impl_data" = type { ptr, ptr, ptr }
%"class.std::unique_ptr" = type { %"struct.std::__uniq_ptr_data" }
%"struct.std::__uniq_ptr_data" = type { %"class.std::__uniq_ptr_impl" }
%"class.std::__uniq_ptr_impl" = type { %"class.std::tuple" }
%"class.std::tuple" = type { %"struct.std::_Tuple_impl" }
%"struct.std::_Tuple_impl" = type { %"struct.std::_Tuple_impl.10", %"struct.std::_Head_base.11" }
%"struct.std::_Tuple_impl.10" = type { %"struct.std::_Head_base" }
%"struct.std::_Head_base" = type { ptr }
%"struct.std::_Head_base.11" = type { ptr }
%"class.std::__cxx11::basic_string" = type { %"struct.std::__cxx11::basic_string<char>::_Alloc_hider", i64, %union.anon.15 }
%"struct.std::__cxx11::basic_string<char>::_Alloc_hider" = type { ptr }
%union.anon.15 = type { i64, [8 x i8] }
%"class.std::vector.16" = type { %"struct.std::_Vector_base.17" }
%"struct.std::_Vector_base.17" = type { %"struct.std::_Vector_base<unsigned char, std::allocator<unsigned char>>::_Vector_impl" }
%"struct.std::_Vector_base<unsigned char, std::allocator<unsigned char>>::_Vector_impl" = type { %"struct.std::_Vector_base<unsigned char, std::allocator<unsigned char>>::_Vector_impl_data" }
%"struct.std::_Vector_base<unsigned char, std::allocator<unsigned char>>::_Vector_impl_data" = type { ptr, ptr, ptr }
%"struct.OpenImageIO_v2_6_0::DDS_pvt::dds_header" = type { i32, i32, i32, i32, i32, i32, i32, i32, [11 x i32], %"struct.OpenImageIO_v2_6_0::DDS_pvt::dds_pixformat", %"struct.OpenImageIO_v2_6_0::DDS_pvt::dds_caps", i32 }
%"struct.OpenImageIO_v2_6_0::DDS_pvt::dds_pixformat" = type { i32, i32, i32, i32, [4 x i32] }
%"struct.OpenImageIO_v2_6_0::DDS_pvt::dds_caps" = type { i32, i32, i32, i32 }
%"struct.OpenImageIO_v2_6_0::DDS_pvt::dds_header_dx10" = type { i32, i32, i32, i32, i32 }

; Function Attrs: mustprogress nounwind uwtable
define linkonce_odr noundef nonnull align 1 dereferenceable(1) ptr @_ZNSt6vectorIhSaIhEEixEm(ptr noundef nonnull align 8 dereferenceable(24) %this, i64 noundef %__n) #4 comdat align 2 {
entry:
  %this.addr = alloca ptr, align 8
  %__n.addr = alloca i64, align 8
  store ptr %this, ptr %this.addr, align 8
  store i64 %__n, ptr %__n.addr, align 8
  %this1 = load ptr, ptr %this.addr, align 8
  %_M_impl = getelementptr inbounds %"struct.std::_Vector_base.17", ptr %this1, i32 0, i32 0
  %_M_start = getelementptr inbounds %"struct.std::_Vector_base<unsigned char, std::allocator<unsigned char>>::_Vector_impl_data", ptr %_M_impl, i32 0, i32 0
  %0 = load ptr, ptr %_M_start, align 8
  %1 = load i64, ptr %__n.addr, align 8
  %add.ptr = getelementptr inbounds i8, ptr %0, i64 %1
  ret ptr %add.ptr
}

; Function Attrs: mustprogress uwtable
define hidden noundef zeroext i1 @_ZN18OpenImageIO_v2_6_08DDSInput17readimg_scanlinesEv(ptr noundef nonnull align 8 dereferenceable(448) %this) #6 align 2 {
entry:
  %this.addr = alloca ptr, align 8
  store ptr %this, ptr %this.addr, align 8
  %this1 = load ptr, ptr %this.addr, align 8
  %m_buf = getelementptr inbounds %"class.OpenImageIO_v2_6_0::DDSInput", ptr %this1, i32 0, i32 2
  %m_spec = getelementptr inbounds %"class.OpenImageIO_v2_6_0::ImageInput", ptr %this1, i32 0, i32 1
  %call = call noundef i64 @_ZNK18OpenImageIO_v2_6_09ImageSpec14scanline_bytesEb(ptr noundef nonnull align 8 dereferenceable(160) %m_spec, i1 noundef zeroext false) #3
  %m_spec2 = getelementptr inbounds %"class.OpenImageIO_v2_6_0::ImageInput", ptr %this1, i32 0, i32 1
  %height = getelementptr inbounds %"class.OpenImageIO_v2_6_0::ImageSpec", ptr %m_spec2, i32 0, i32 4
  %0 = load i32, ptr %height, align 8
  %conv = sext i32 %0 to i64
  %mul = mul i64 %call, %conv
  %m_spec3 = getelementptr inbounds %"class.OpenImageIO_v2_6_0::ImageInput", ptr %this1, i32 0, i32 1
  %depth = getelementptr inbounds %"class.OpenImageIO_v2_6_0::ImageSpec", ptr %m_spec3, i32 0, i32 5
  %1 = load i32, ptr %depth, align 4
  %conv4 = sext i32 %1 to i64
  %mul5 = mul i64 %mul, %conv4
  call void @_ZNSt6vectorIhSaIhEE6resizeEm(ptr noundef nonnull align 8 dereferenceable(24) %m_buf, i64 noundef %mul5)
  %m_buf6 = getelementptr inbounds %"class.OpenImageIO_v2_6_0::DDSInput", ptr %this1, i32 0, i32 2
  %call7 = call noundef nonnull align 1 dereferenceable(1) ptr @_ZNSt6vectorIhSaIhEEixEm(ptr noundef nonnull align 8 dereferenceable(24) %m_buf6, i64 noundef 0) #3
  %m_spec8 = getelementptr inbounds %"class.OpenImageIO_v2_6_0::ImageInput", ptr %this1, i32 0, i32 1
  %width = getelementptr inbounds %"class.OpenImageIO_v2_6_0::ImageSpec", ptr %m_spec8, i32 0, i32 3
  %2 = load i32, ptr %width, align 4
  %m_spec9 = getelementptr inbounds %"class.OpenImageIO_v2_6_0::ImageInput", ptr %this1, i32 0, i32 1
  %height10 = getelementptr inbounds %"class.OpenImageIO_v2_6_0::ImageSpec", ptr %m_spec9, i32 0, i32 4
  %3 = load i32, ptr %height10, align 8
  %m_spec11 = getelementptr inbounds %"class.OpenImageIO_v2_6_0::ImageInput", ptr %this1, i32 0, i32 1
  %depth12 = getelementptr inbounds %"class.OpenImageIO_v2_6_0::ImageSpec", ptr %m_spec11, i32 0, i32 5
  %4 = load i32, ptr %depth12, align 4
  %call13 = call noundef zeroext i1 @_ZN18OpenImageIO_v2_6_08DDSInput16internal_readimgEPhiii(ptr noundef nonnull align 8 dereferenceable(448) %this1, ptr noundef %call7, i32 noundef %2, i32 noundef %3, i32 noundef %4)
  ret i1 %call13
}