; Function Attrs: mustprogress uwtable
define hidden noundef zeroext i1 @_ZN18OpenImageIO_v2_6_08DDSInput17readimg_scanlinesEv(ptr noundef nonnull align 8 dereferenceable(448) %this) local_unnamed_addr #11 align 2 {
entry:
  %m_buf = getelementptr inbounds i8, ptr %this, i64 216
  %m_spec = getelementptr inbounds i8, ptr %this, i64 8
  %call = tail call noundef i64 @_ZNK18OpenImageIO_v2_6_09ImageSpec14scanline_bytesEb(ptr noundef nonnull align 8 dereferenceable(160) %m_spec, i1 noundef zeroext false) #26
  %height = getelementptr inbounds i8, ptr %this, i64 24
  %0 = load i32, ptr %height, align 8
  %conv = sext i32 %0 to i64
  %mul = mul i64 %call, %conv
  %depth = getelementptr inbounds i8, ptr %this, i64 28
  %1 = load i32, ptr %depth, align 4
  %conv4 = sext i32 %1 to i64
  %mul5 = mul i64 %mul, %conv4
  tail call void @_ZNSt6vectorIhSaIhEE6resizeEm(ptr noundef nonnull align 8 dereferenceable(24) %m_buf, i64 noundef %mul5)
  %2 = load ptr, ptr %m_buf, align 8
  %width = getelementptr inbounds i8, ptr %this, i64 20
  %3 = load i32, ptr %width, align 4
  %4 = load i32, ptr %height, align 8
  %5 = load i32, ptr %depth, align 4
  %call13 = tail call noundef zeroext i1 @_ZN18OpenImageIO_v2_6_08DDSInput16internal_readimgEPhiii(ptr noundef nonnull align 8 dereferenceable(448) %this, ptr noundef nonnull %2, i32 noundef %3, i32 noundef %4, i32 noundef %5)
  ret i1 %call13
}